Certificate:
    Data:
        Version: 3 (0x2)
        Serial Number: 8 (0x8)
    Signature Algorithm: sha256WithRSAEncryption
        Issuer: C=AU, ST=QLD, L=Brisbane, O=dray.be, OU=MyOrganizationalUnit, CN=dray.be CA/name=EasyRSA/emailAddress=justin@dray.be
        Validity
            Not Before: Jun 14 07:08:23 2015 GMT
            Not After : Jun 11 07:08:23 2025 GMT
        Subject: C=AU, ST=QLD, L=Brisbane, O=dray.be, OU=MyOrganizationalUnit, CN=puppet-clients/name=EasyRSA/emailAddress=justin@dray.be
        Subject Public Key Info:
            Public Key Algorithm: rsaEncryption
                Public-Key: (2048 bit)
                Modulus:
                    00:ac:08:d4:b3:df:81:0f:8c:54:ec:f7:0a:e5:d0:
                    3c:12:3b:28:43:ec:4d:f1:9a:d7:f1:05:2f:4e:15:
                    57:6a:f6:d7:0c:02:61:4f:e5:8e:c1:29:c5:61:eb:
                    16:97:22:d2:2a:d5:c2:7d:e9:b6:6a:e8:99:34:67:
                    d8:97:82:6e:a3:1b:d8:2a:a7:d6:1b:b4:72:84:88:
                    1c:66:4e:2c:00:3b:41:4f:f7:e4:b5:fb:23:f9:b1:
                    6d:12:a7:14:82:5d:6b:2c:60:cf:20:e3:ae:5d:24:
                    32:5a:57:4a:92:c9:c4:db:82:ef:e5:eb:c4:ce:41:
                    b2:fa:2c:45:aa:16:30:c4:f3:22:68:fd:18:f5:56:
                    b6:61:53:17:0b:46:7d:0c:24:85:f7:19:95:94:ed:
                    96:b7:43:c7:1f:54:3d:37:f2:b0:37:a6:1d:0e:12:
                    2e:8e:7e:6b:50:90:90:85:1e:79:02:bb:a1:8b:cc:
                    70:ce:d7:fb:2d:0e:87:4b:ee:e5:98:53:c7:7c:74:
                    db:54:a1:a4:92:c4:aa:45:b3:fe:a2:8a:61:e6:e3:
                    79:71:d4:ff:ea:b8:8d:fe:c8:00:58:36:7e:fe:03:
                    b9:05:44:ef:63:5b:1d:cd:ad:e5:25:9e:47:d1:f3:
                    ad:21:ee:c0:e0:a7:0d:fe:fe:c2:06:32:ed:9c:e8:
                    3b:c5
                Exponent: 65537 (0x10001)
        X509v3 extensions:
            X509v3 Basic Constraints: 
                CA:FALSE
            Netscape Comment: 
                Easy-RSA Generated Certificate
            X509v3 Subject Key Identifier: 
                0E:FA:AA:14:7D:2A:4B:BF:86:44:51:C3:DA:07:BC:F5:DD:33:98:95
            X509v3 Authority Key Identifier: 
                keyid:0A:E2:71:B7:9A:79:24:D2:5F:56:6D:69:9B:C7:96:7B:DB:02:0F:A9
                DirName:/C=AU/ST=QLD/L=Brisbane/O=dray.be/OU=MyOrganizationalUnit/CN=dray.be CA/name=EasyRSA/emailAddress=justin@dray.be
                serial:A5:13:D5:B5:0E:FB:00:60

            X509v3 Extended Key Usage: 
                TLS Web Client Authentication
            X509v3 Key Usage: 
                Digital Signature
    Signature Algorithm: sha256WithRSAEncryption
         cb:d0:15:e3:e3:4d:87:11:32:59:d6:06:91:d7:d7:08:1c:72:
         ec:f7:67:4a:a8:56:60:6e:91:1d:67:09:8a:c6:9e:87:35:af:
         c2:68:94:23:b5:ad:5b:ba:a0:23:e5:25:6b:fd:74:03:8b:47:
         36:f0:37:32:75:f1:c5:2f:01:90:7d:9a:ee:a1:38:63:0a:82:
         9b:d0:13:55:8a:43:d0:72:58:3c:f2:d9:92:c3:b7:ba:64:9f:
         85:4d:93:ff:cf:f7:f8:6b:79:04:ab:74:2e:fc:2f:96:72:0d:
         00:a0:32:12:35:fb:be:45:e9:c9:7c:3e:57:55:c3:af:03:a0:
         4c:c5:d0:c9:a0:0c:5e:3c:62:0c:31:78:24:74:db:df:77:e2:
         46:7f:63:29:07:67:47:30:f1:d8:6d:d9:0d:67:0b:4e:69:80:
         50:2a:11:c1:6f:45:6e:19:f1:8a:0b:d6:dd:ac:77:29:76:7c:
         86:95:8b:ad:be:40:20:da:a5:21:d9:7d:72:96:00:09:39:4c:
         a8:bb:66:c6:33:6c:65:48:81:a9:fe:57:57:ac:ee:0b:f8:20:
         7a:6a:85:fc:0c:13:b1:0c:5a:6b:71:ed:6f:cd:51:c4:b7:e2:
         fa:fb:14:d8:f9:80:e3:d5:39:33:23:41:2d:c7:20:45:76:01:
         3a:c5:8d:9e
-----BEGIN CERTIFICATE-----
MIIFKTCCBBGgAwIBAgIBCDANBgkqhkiG9w0BAQsFADCBpTELMAkGA1UEBhMCQVUx
DDAKBgNVBAgTA1FMRDERMA8GA1UEBxMIQnJpc2JhbmUxEDAOBgNVBAoTB2RyYXku
YmUxHTAbBgNVBAsTFE15T3JnYW5pemF0aW9uYWxVbml0MRMwEQYDVQQDEwpkcmF5
LmJlIENBMRAwDgYDVQQpEwdFYXN5UlNBMR0wGwYJKoZIhvcNAQkBFg5qdXN0aW5A
ZHJheS5iZTAeFw0xNTA2MTQwNzA4MjNaFw0yNTA2MTEwNzA4MjNaMIGpMQswCQYD
VQQGEwJBVTEMMAoGA1UECBMDUUxEMREwDwYDVQQHEwhCcmlzYmFuZTEQMA4GA1UE
ChMHZHJheS5iZTEdMBsGA1UECxMUTXlPcmdhbml6YXRpb25hbFVuaXQxFzAVBgNV
BAMTDnB1cHBldC1jbGllbnRzMRAwDgYDVQQpEwdFYXN5UlNBMR0wGwYJKoZIhvcN
AQkBFg5qdXN0aW5AZHJheS5iZTCCASIwDQYJKoZIhvcNAQEBBQADggEPADCCAQoC
ggEBAKwI1LPfgQ+MVOz3CuXQPBI7KEPsTfGa1/EFL04VV2r21wwCYU/ljsEpxWHr
Fpci0irVwn3ptmromTRn2JeCbqMb2Cqn1hu0coSIHGZOLAA7QU/35LX7I/mxbRKn
FIJdayxgzyDjrl0kMlpXSpLJxNuC7+XrxM5BsvosRaoWMMTzImj9GPVWtmFTFwtG
fQwkhfcZlZTtlrdDxx9UPTfysDemHQ4SLo5+a1CQkIUeeQK7oYvMcM7X+y0Oh0vu
5ZhTx3x021ShpJLEqkWz/qKKYebjeXHU/+q4jf7IAFg2fv4DuQVE72NbHc2t5SWe
R9HzrSHuwOCnDf7+wgYy7ZzoO8UCAwEAAaOCAVwwggFYMAkGA1UdEwQCMAAwLQYJ
YIZIAYb4QgENBCAWHkVhc3ktUlNBIEdlbmVyYXRlZCBDZXJ0aWZpY2F0ZTAdBgNV
HQ4EFgQUDvqqFH0qS7+GRFHD2ge89d0zmJUwgdoGA1UdIwSB0jCBz4AUCuJxt5p5
JNJfVm1pm8eWe9sCD6mhgaukgagwgaUxCzAJBgNVBAYTAkFVMQwwCgYDVQQIEwNR
TEQxETAPBgNVBAcTCEJyaXNiYW5lMRAwDgYDVQQKEwdkcmF5LmJlMR0wGwYDVQQL
ExRNeU9yZ2FuaXphdGlvbmFsVW5pdDETMBEGA1UEAxMKZHJheS5iZSBDQTEQMA4G
A1UEKRMHRWFzeVJTQTEdMBsGCSqGSIb3DQEJARYOanVzdGluQGRyYXkuYmWCCQCl
E9W1DvsAYDATBgNVHSUEDDAKBggrBgEFBQcDAjALBgNVHQ8EBAMCB4AwDQYJKoZI
hvcNAQELBQADggEBAMvQFePjTYcRMlnWBpHX1wgccuz3Z0qoVmBukR1nCYrGnoc1
r8JolCO1rVu6oCPlJWv9dAOLRzbwNzJ18cUvAZB9mu6hOGMKgpvQE1WKQ9ByWDzy
2ZLDt7pkn4VNk//P9/hreQSrdC78L5ZyDQCgMhI1+75F6cl8PldVw68DoEzF0Mmg
DF48YgwxeCR029934kZ/YykHZ0cw8dht2Q1nC05pgFAqEcFvRW4Z8YoL1t2sdyl2
fIaVi62+QCDapSHZfXKWAAk5TKi7ZsYzbGVIgan+V1es7gv4IHpqhfwME7EMWmtx
7W/NUcS34vr7FNj5gOPVOTMjQS3HIEV2ATrFjZ4=
-----END CERTIFICATE-----
